(lp0
c__builtin__
set
p1
((lp2
S'Porto'
p3
aS'Granada'
p4
aS'Sevilha'
p5
aS'Aveiro'
p6
aS'Madrid'
p7
aS'Portimao'
p8
aS'Badajoz'
p9
aS'Barcelona'
p10
aS'Gijon'
p11
aS'Andorra'
p12
aS'Palma'
p13
aS'Bilbau'
p14
aS'Vigo'
p15
aS'Lisboa'
p16
aS'Valencia'
p17
aS'Vilar.Formoso'
p18
aS'Corunha'
p19
aS'Braganca'
p20
atp21
Rp22
ag1
((lp23
(g11
g14
tp24
a(g4
g5
tp25
a(g9
g16
tp26
a(g6
g3
tp27
a(g9
g18
tp28
a(g3
g20
tp29
a(g20
g11
tp30
a(g13
g17
tp31
a(g10
g12
tp32
a(g14
g7
tp33
a(g10
g17
tp34
a(g8
g5
tp35
a(g7
g18
tp36
a(g4
g17
tp37
a(g15
g19
tp38
a(g6
g16
tp39
a(g9
g17
tp40
a(g20
g18
tp41
a(g6
g18
tp42
a(g8
g16
tp43
a(g4
g13
tp44
a(g14
g12
tp45
a(g3
g15
tp46
a(g7
g10
tp47
a(g20
g14
tp48
a(g7
g17
tp49
a(g19
g11
tp50
a(g10
g13
tp51
a(g9
g5
tp52
atp53
Rp54
a(dp55
g17
(F-0.3762881
F39.4699075
tp56
sg3
(F-8.629105299999999
F41.1579438
tp57
sg4
(F-3.5985571
F37.1773363
tp58
sg5
(F-5.9844589
F37.3890924
tp59
sg7
(F-3.7037902
F40.4167754
tp60
sg8
(F-8.5376926
F37.13617
tp61
sg9
(F-6.9706535
F38.8794495
tp62
sg10
(F2.1734035
F41.3850639
tp63
sg12
(F1.521801
F42.506285
tp64
sg11
(F-5.6611195
F43.5322015
tp65
sg14
(F-2.9475662
F43.262629
tp66
sg15
(F-8.7207268
F42.24059889999999
tp67
sg16
(F-9.1393366
F38.7222524
tp68
sg13
(F2.6501603
F39.5696005
tp69
sg18
(F-6.837111999999999
F40.6148457
tp70
sg6
(F-8.6537539
F40.6405055
tp71
sg19
(F-8.4115401
F43.3623436
tp72
sg20
(F-6.756737999999999
F41.8061131
tp73
sa(dp74
g17
(dp75
g3
I1530
sg4
I1567
sg5
I1561
sg7
I1539
sg8
I1517
sg9
I1559
sg10
I1540
sg12
I1531
sg11
I1511
sg14
I1527
sg15
I1531
sg16
I1574
sg13
I1589
sg18
I1612
sg6
I1568
sg19
I1533
sg20
I1549
ssg3
(dp76
g17
I1489
sg4
I1525
sg8
I1549
sg7
I1472
sg5
I1521
sg9
I1474
sg10
I1529
sg12
I1589
sg13
I1633
sg14
I1553
sg15
I1499
sg16
I1544
sg11
I1483
sg18
I1544
sg6
I1563
sg19
I1539
sg20
I1553
ssg4
(dp77
g17
I1547
sg3
I1597
sg8
I1569
sg7
I1514
sg5
I1518
sg9
I1559
sg10
I1517
sg12
I1538
sg13
I1544
sg14
I1531
sg15
I1597
sg16
I1576
sg11
I1586
sg18
I1564
sg6
I1478
sg19
I1547
sg20
I1558
ssg5
(dp78
g17
I1543
sg3
I1573
sg4
I1590
sg8
I1495
sg7
I1544
sg19
I1633
sg9
I1541
sg10
I1564
sg12
I1503
sg13
I1580
sg14
I1508
sg15
I1516
sg16
I1559
sg11
I1539
sg18
I1495
sg6
I1534
sg20
I1558
ssg7
(dp79
g17
I1529
sg3
I1499
sg4
I1582
sg8
I1527
sg18
I1494
sg5
I1530
sg9
I1548
sg10
I1527
sg12
I1513
sg13
I1520
sg14
I1557
sg15
I1517
sg16
I1553
sg11
I1550
sg6
I1559
sg19
I1570
sg20
I1578
ssg8
(dp80
g17
I1555
sg3
I1522
sg4
I1563
sg5
I1579
sg7
I1516
sg19
I1594
sg9
I1515
sg10
I1548
sg12
I1540
sg13
I1550
sg14
I1597
sg15
I1482
sg16
I1549
sg11
I1518
sg18
I1669
sg6
I1534
sg20
I1574
ssg9
(dp81
g17
I1524
sg3
I1598
sg4
I1594
sg5
I1586
sg7
I1623
sg8
I1560
sg19
I1578
sg10
I1535
sg12
I1546
sg13
I1548
sg14
I1559
sg15
I1552
sg16
I1599
sg11
I1547
sg18
I1474
sg6
I1518
sg20
I1527
ssg10
(dp82
g17
I1504
sg3
I1558
sg4
I1553
sg5
I1573
sg7
I1474
sg8
I1535
sg9
I1572
sg12
I1524
sg13
I1530
sg14
I1520
sg15
I1587
sg16
I1546
sg11
I1494
sg18
I1480
sg6
I1560
sg19
I1530
sg20
I1575
ssg12
(dp83
g17
I1561
sg3
I1520
sg4
I1548
sg5
I1528
sg7
I1519
sg8
I1529
sg9
I1579
sg10
I1566
sg19
I1568
sg13
I1550
sg14
I1588
sg15
I1503
sg16
I1522
sg11
I1575
sg18
I1601
sg6
I1539
sg20
I1537
ssg11
(dp84
g3
I1544
sg4
I1526
sg5
I1459
sg7
I1520
sg8
I1577
sg9
I1458
sg10
I1542
sg12
I1611
sg13
I1508
sg14
I1522
sg17
I1520
sg16
I1500
sg15
I1506
sg18
I1562
sg6
I1502
sg19
I1515
sg20
I1488
ssg14
(dp85
g17
I1537
sg3
I1587
sg4
I1564
sg5
I1557
sg7
I1558
sg8
I1492
sg9
I1551
sg10
I1623
sg12
I1580
sg11
I1532
sg20
I1562
sg15
I1522
sg16
I1628
sg13
I1532
sg18
I1563
sg6
I1623
sg19
I1521
ssg15
(dp86
g3
I1480
sg4
I1556
sg5
I1595
sg7
I1572
sg8
I1486
sg9
I1556
sg10
I1577
sg12
I1516
sg11
I1571
sg14
I1510
sg17
I1516
sg16
I1463
sg13
I1377
sg18
I1551
sg6
I1629
sg19
I1511
sg20
I1528
ssg16
(dp87
g17
I1543
sg3
I1589
sg4
I1563
sg5
I1539
sg7
I1604
sg8
I1509
sg9
I1550
sg10
I1568
sg12
I1504
sg11
I1446
sg14
I1548
sg15
I1556
sg13
I1547
sg18
I1548
sg6
I1565
sg19
I1528
sg20
I1554
ssg13
(dp88
g3
I1571
sg4
I1556
sg5
I1583
sg7
I1557
sg8
I1549
sg9
I1542
sg10
I1566
sg12
I1593
sg11
I1541
sg14
I1603
sg17
I1574
sg16
I1518
sg15
I1536
sg18
I1636
sg6
I1530
sg19
I1538
sg20
I1592
ssg18
(dp89
g17
I1578
sg3
I1505
sg4
I1517
sg5
I1570
sg7
I1650
sg8
I1493
sg9
I1570
sg10
I1534
sg12
I1518
sg11
I1631
sg14
I1524
sg15
I1509
sg16
I1558
sg13
I1488
sg6
I1593
sg19
I1618
sg20
I1507
ssg6
(dp90
g17
I1579
sg3
I1555
sg4
I1517
sg8
I1561
sg7
I1455
sg5
I1505
sg9
I1582
sg10
I1583
sg12
I1553
sg13
I1537
sg14
I1560
sg15
I1487
sg16
I1503
sg11
I1528
sg18
I1570
sg19
I1602
sg20
I1551
ssg19
(dp91
g17
I1542
sg3
I1517
sg4
I1578
sg5
I1592
sg7
I1567
sg8
I1563
sg9
I1518
sg10
I1583
sg12
I1529
sg11
I1569
sg14
I1498
sg15
I1538
sg16
I1488
sg13
I1591
sg18
I1563
sg6
I1519
sg20
I1582
ssg20
(dp92
g17
I1612
sg3
I1563
sg4
I1522
sg5
I1579
sg7
I1459
sg8
I1573
sg9
I1535
sg10
I1548
sg12
I1580
sg11
I1557
sg14
I1491
sg15
I1578
sg16
I1548
sg13
I1525
sg18
I1556
sg6
I1483
sg19
I1506
ssa.