(lp0
c__builtin__
set
p1
((lp2
S'Porto'
p3
aS'Granada'
p4
aS'Sevilha'
p5
aS'Aveiro'
p6
aS'Madrid'
p7
aS'Portimao'
p8
aS'Badajoz'
p9
aS'Barcelona'
p10
aS'Gijon'
p11
aS'Andorra'
p12
aS'Palma'
p13
aS'Bilbau'
p14
aS'Vigo'
p15
aS'Lisboa'
p16
aS'Valencia'
p17
aS'Vilar.Formoso'
p18
aS'Corunha'
p19
aS'Braganca'
p20
atp21
Rp22
ag1
((lp23
(g11
g14
tp24
a(g4
g5
tp25
a(g9
g16
tp26
a(g6
g3
tp27
a(g9
g18
tp28
a(g3
g20
tp29
a(g20
g11
tp30
a(g13
g17
tp31
a(g10
g12
tp32
a(g14
g7
tp33
a(g10
g17
tp34
a(g8
g5
tp35
a(g7
g18
tp36
a(g4
g17
tp37
a(g15
g19
tp38
a(g6
g16
tp39
a(g9
g17
tp40
a(g20
g18
tp41
a(g6
g18
tp42
a(g8
g16
tp43
a(g4
g13
tp44
a(g14
g12
tp45
a(g3
g15
tp46
a(g7
g10
tp47
a(g20
g14
tp48
a(g7
g17
tp49
a(g19
g11
tp50
a(g10
g13
tp51
a(g9
g5
tp52
atp53
Rp54
a(dp55
g17
(F-0.3762881
F39.4699075
tp56
sg3
(F-8.629105299999999
F41.1579438
tp57
sg4
(F-3.5985571
F37.1773363
tp58
sg5
(F-5.9844589
F37.3890924
tp59
sg7
(F-3.7037902
F40.4167754
tp60
sg8
(F-8.5376926
F37.13617
tp61
sg9
(F-6.9706535
F38.8794495
tp62
sg10
(F2.1734035
F41.3850639
tp63
sg12
(F1.521801
F42.506285
tp64
sg11
(F-5.6611195
F43.5322015
tp65
sg14
(F-2.9475662
F43.262629
tp66
sg15
(F-8.7207268
F42.24059889999999
tp67
sg16
(F-9.1393366
F38.7222524
tp68
sg13
(F2.6501603
F39.5696005
tp69
sg18
(F-6.837111999999999
F40.6148457
tp70
sg6
(F-8.6537539
F40.6405055
tp71
sg19
(F-8.4115401
F43.3623436
tp72
sg20
(F-6.756737999999999
F41.8061131
tp73
sa(dp74
g17
(dp75
g3
I1525
sg4
I1564
sg5
I1573
sg7
I1523
sg8
I1542
sg9
I1486
sg10
I1511
sg12
I1445
sg11
I1531
sg14
I1531
sg15
I1481
sg16
I1523
sg13
I1584
sg18
I1620
sg6
I1493
sg19
I1562
sg20
I1561
ssg3
(dp76
g17
I1568
sg4
I1445
sg8
I1609
sg7
I1565
sg5
I1498
sg9
I1536
sg10
I1494
sg12
I1588
sg13
I1540
sg14
I1620
sg15
I1568
sg16
I1551
sg11
I1565
sg18
I1541
sg6
I1586
sg19
I1585
sg20
I1522
ssg4
(dp77
g17
I1496
sg3
I1575
sg8
I1626
sg7
I1531
sg5
I1555
sg9
I1530
sg10
I1434
sg12
I1500
sg13
I1558
sg14
I1592
sg15
I1566
sg16
I1610
sg11
I1563
sg18
I1520
sg6
I1509
sg19
I1533
sg20
I1516
ssg5
(dp78
g17
I1567
sg3
I1582
sg4
I1536
sg8
I1516
sg7
I1531
sg19
I1541
sg9
I1547
sg10
I1524
sg12
I1495
sg13
I1535
sg14
I1519
sg15
I1531
sg16
I1509
sg11
I1531
sg18
I1551
sg6
I1562
sg20
I1557
ssg7
(dp79
g17
I1464
sg3
I1544
sg4
I1511
sg8
I1619
sg18
I1609
sg5
I1522
sg9
I1575
sg10
I1617
sg12
I1572
sg13
I1559
sg14
I1598
sg15
I1575
sg16
I1527
sg11
I1544
sg6
I1551
sg19
I1541
sg20
I1511
ssg8
(dp80
g17
I1533
sg3
I1543
sg4
I1501
sg5
I1579
sg7
I1629
sg19
I1578
sg9
I1554
sg10
I1594
sg12
I1572
sg13
I1560
sg14
I1542
sg15
I1586
sg16
I1522
sg11
I1526
sg18
I1569
sg6
I1517
sg20
I1565
ssg9
(dp81
g17
I1520
sg3
I1480
sg4
I1621
sg5
I1550
sg7
I1597
sg8
I1490
sg19
I1539
sg10
I1505
sg12
I1599
sg13
I1507
sg14
I1539
sg15
I1594
sg16
I1554
sg11
I1580
sg18
I1592
sg6
I1592
sg20
I1547
ssg10
(dp82
g17
I1576
sg3
I1521
sg4
I1485
sg5
I1533
sg7
I1561
sg8
I1470
sg9
I1560
sg12
I1586
sg13
I1553
sg14
I1598
sg15
I1555
sg16
I1580
sg11
I1483
sg18
I1531
sg6
I1528
sg19
I1510
sg20
I1550
ssg12
(dp83
g17
I1531
sg3
I1587
sg4
I1566
sg5
I1510
sg7
I1564
sg8
I1558
sg9
I1499
sg10
I1555
sg19
I1549
sg13
I1603
sg14
I1613
sg15
I1526
sg16
I1563
sg11
I1523
sg18
I1561
sg6
I1503
sg20
I1583
ssg11
(dp84
g3
I1572
sg4
I1432
sg5
I1511
sg7
I1555
sg8
I1590
sg9
I1625
sg10
I1524
sg12
I1519
sg13
I1535
sg14
I1541
sg17
I1483
sg16
I1566
sg15
I1541
sg18
I1546
sg6
I1582
sg19
I1540
sg20
I1577
ssg14
(dp85
g17
I1601
sg3
I1534
sg4
I1538
sg5
I1543
sg7
I1471
sg8
I1585
sg9
I1490
sg10
I1517
sg12
I1486
sg11
I1530
sg20
I1539
sg15
I1582
sg16
I1510
sg13
I1558
sg18
I1530
sg6
I1555
sg19
I1509
ssg15
(dp86
g3
I1532
sg4
I1572
sg5
I1534
sg7
I1615
sg8
I1515
sg9
I1503
sg10
I1578
sg12
I1555
sg11
I1536
sg14
I1441
sg17
I1480
sg16
I1535
sg13
I1540
sg18
I1582
sg6
I1509
sg19
I1549
sg20
I1521
ssg16
(dp87
g17
I1546
sg3
I1577
sg4
I1520
sg5
I1542
sg7
I1512
sg8
I1602
sg9
I1557
sg10
I1512
sg12
I1606
sg11
I1544
sg14
I1473
sg15
I1553
sg13
I1505
sg18
I1542
sg6
I1548
sg19
I1530
sg20
I1555
ssg13
(dp88
g3
I1485
sg4
I1507
sg5
I1588
sg7
I1568
sg8
I1474
sg9
I1522
sg10
I1532
sg12
I1567
sg11
I1558
sg14
I1606
sg17
I1465
sg16
I1549
sg15
I1545
sg18
I1560
sg6
I1543
sg19
I1626
sg20
I1515
ssg18
(dp89
g17
I1519
sg3
I1633
sg4
I1577
sg5
I1568
sg7
I1553
sg8
I1564
sg9
I1532
sg10
I1451
sg12
I1570
sg11
I1586
sg14
I1573
sg15
I1437
sg16
I1554
sg13
I1503
sg6
I1548
sg19
I1579
sg20
I1461
ssg6
(dp90
g17
I1533
sg3
I1494
sg4
I1497
sg8
I1476
sg7
I1553
sg5
I1568
sg9
I1561
sg10
I1497
sg12
I1529
sg13
I1571
sg14
I1555
sg15
I1552
sg16
I1523
sg11
I1566
sg18
I1578
sg19
I1477
sg20
I1534
ssg19
(dp91
g17
I1543
sg3
I1572
sg4
I1525
sg5
I1542
sg7
I1481
sg8
I1488
sg9
I1523
sg10
I1553
sg12
I1550
sg11
I1547
sg14
I1521
sg15
I1564
sg16
I1641
sg13
I1585
sg18
I1463
sg6
I1498
sg20
I1570
ssg20
(dp92
g17
I1526
sg3
I1603
sg4
I1598
sg5
I1454
sg7
I1504
sg8
I1536
sg9
I1542
sg10
I1603
sg12
I1638
sg11
I1565
sg14
I1513
sg15
I1541
sg16
I1600
sg13
I1565
sg18
I1549
sg6
I1575
sg19
I1492
ssa.